target datalayout = "e-m:e-p270:32:32-p271:32:32-p272:64:64-i64:64-i128:128-f80:128-n8:16:32:64-S128"
target triple = "x86_64-unknown-linux-gnu"

%"class.icu_75::ZNames" = type <{ [7 x ptr], i8, i8, [6 x i8] }>

@_ZN6icu_75L5EMPTYE = internal constant [8 x i8] c"<empty>\00", align 1

; Function Attrs: mustprogress nounwind uwtable
define linkonce_odr void @_ZN6icu_756ZNamesD2Ev(ptr noundef nonnull align 8 dereferenceable(58) %this) unnamed_addr #0 comdat align 2 personality ptr @__gxx_personality_v0 {
entry:
  %this.addr = alloca ptr, align 8
  %locationName = alloca ptr, align 8
  store ptr %this, ptr %this.addr, align 8
  %this1 = load ptr, ptr %this.addr, align 8
  %fOwnsLocationName = getelementptr inbounds %"class.icu_75::ZNames", ptr %this1, i32 0, i32 2
  %0 = load i8, ptr %fOwnsLocationName, align 1
  %tobool = icmp ne i8 %0, 0
  br i1 %tobool, label %if.then, label %if.end

if.then:                                          ; preds = %entry
  %fNames = getelementptr inbounds %"class.icu_75::ZNames", ptr %this1, i32 0, i32 0
  %arrayidx = getelementptr inbounds [7 x ptr], ptr %fNames, i64 0, i64 0
  %1 = load ptr, ptr %arrayidx, align 8
  store ptr %1, ptr %locationName, align 8
  %2 = load ptr, ptr %locationName, align 8
  invoke void @uprv_free_75(ptr noundef %2)
          to label %invoke.cont unwind label %terminate.lpad

invoke.cont:                                      ; preds = %if.then
  br label %if.end

if.end:                                           ; preds = %invoke.cont, %entry
  ret void

terminate.lpad:                                   ; preds = %if.then
  %3 = landingpad { ptr, i32 }
          catch ptr null
  %4 = extractvalue { ptr, i32 } %3, 0
  call void @__clang_call_terminate(ptr %4) #12
  unreachable
}

; Function Attrs: mustprogress nounwind uwtable
define internal void @_ZN6icu_75L12deleteZNamesEPv(ptr noundef %obj) #0 {
entry:
  %obj.addr = alloca ptr, align 8
  store ptr %obj, ptr %obj.addr, align 8
  %0 = load ptr, ptr %obj.addr, align 8
  %cmp = icmp ne ptr %0, @_ZN6icu_75L5EMPTYE
  br i1 %cmp, label %if.then, label %if.end

if.then:                                          ; preds = %entry
  %1 = load ptr, ptr %obj.addr, align 8
  %isnull = icmp eq ptr %1, null
  br i1 %isnull, label %delete.end, label %delete.notnull

delete.notnull:                                   ; preds = %if.then
  call void @_ZN6icu_756ZNamesD2Ev(ptr noundef nonnull align 8 dereferenceable(58) %1) #10
  call void @_ZN6icu_757UMemorydlEPv(ptr noundef %1) #10
  br label %delete.end

delete.end:                                       ; preds = %delete.notnull, %if.then
  br label %if.end

if.end:                                           ; preds = %delete.end, %entry
  ret void
}