; Function Attrs: mustprogress nounwind uwtable
define internal void @_ZN6icu_75L12deleteZNamesEPv(ptr noundef %obj) #0 personality ptr @__gxx_personality_v0 {
entry:
  %cmp.not = icmp eq ptr %obj, @_ZN6icu_75L5EMPTYE
  %isnull = icmp eq ptr %obj, null
  %or.cond = or i1 %cmp.not, %isnull
  br i1 %or.cond, label %if.end, label %delete.notnull

delete.notnull:                                   ; preds = %entry
  %fOwnsLocationName.i = getelementptr inbounds i8, ptr %obj, i64 57
  %0 = load i8, ptr %fOwnsLocationName.i, align 1
  %tobool.not.i = icmp eq i8 %0, 0
  br i1 %tobool.not.i, label %_ZN6icu_756ZNamesD2Ev.exit, label %if.then.i

if.then.i:                                        ; preds = %delete.notnull
  %1 = load ptr, ptr %obj, align 8
  invoke void @uprv_free_75(ptr noundef %1)
          to label %_ZN6icu_756ZNamesD2Ev.exit unwind label %terminate.lpad.i

terminate.lpad.i:                                 ; preds = %if.then.i
  %2 = landingpad { ptr, i32 }
          catch ptr null
  %3 = extractvalue { ptr, i32 } %2, 0
  tail call void @__clang_call_terminate(ptr %3) #22
  unreachable

_ZN6icu_756ZNamesD2Ev.exit:                       ; preds = %delete.notnull, %if.then.i
  tail call void @_ZN6icu_757UMemorydlEPv(ptr noundef nonnull %obj) #20
  br label %if.end

if.end:                                           ; preds = %_ZN6icu_756ZNamesD2Ev.exit, %entry
  ret void
}